target datalayout = "e-m:e-p270:32:32-p271:32:32-p272:64:64-i64:64-i128:128-f80:128-n8:16:32:64-S128"
target triple = "x86_64-pc-linux-gnu"

@l___private_Lean_Meta_Tactic_Grind_SimpUtil_0__Lean_Meta_Grind_isBoolEqTarget___closed__3 = internal global ptr null, align 8
@l___private_Lean_Meta_Tactic_Grind_SimpUtil_0__Lean_Meta_Grind_isBoolEqTarget___closed__5 = internal global ptr null, align 8
@l___private_Lean_Meta_Tactic_Grind_SimpUtil_0__Lean_Meta_Grind_isBoolEqTarget___closed__7 = internal global ptr null, align 8
@l___private_Lean_Meta_Tactic_Grind_SimpUtil_0__Lean_Meta_Grind_isBoolEqTarget___closed__10 = internal global ptr null, align 8
@l___private_Lean_Meta_Tactic_Grind_SimpUtil_0__Lean_Meta_Grind_isBoolEqTarget___closed__13 = internal global ptr null, align 8

; Function Attrs: nounwind uwtable
define zeroext i8 @l___private_Lean_Meta_Tactic_Grind_SimpUtil_0__Lean_Meta_Grind_isBoolEqTarget(ptr noundef %0) #1 {
  %2 = alloca i8, align 1
  %3 = alloca ptr, align 8
  %4 = alloca ptr, align 8
  %5 = alloca i8, align 1
  %6 = alloca ptr, align 8
  %7 = alloca i8, align 1
  %8 = alloca ptr, align 8
  %9 = alloca i8, align 1
  %10 = alloca ptr, align 8
  %11 = alloca i8, align 1
  %12 = alloca ptr, align 8
  %13 = alloca i8, align 1
  %14 = alloca i32, align 4
  %15 = alloca i8, align 1
  %16 = alloca i8, align 1
  %17 = alloca i8, align 1
  %18 = alloca i8, align 1
  store ptr %0, ptr %3, align 8, !tbaa !4
  br label %19

19:                                               ; preds = %1
  call void @llvm.lifetime.start.p0(i64 8, ptr %4) #8
  call void @llvm.lifetime.start.p0(i64 1, ptr %5) #8
  %20 = load ptr, ptr @l___private_Lean_Meta_Tactic_Grind_SimpUtil_0__Lean_Meta_Grind_isBoolEqTarget___closed__3, align 8, !tbaa !4
  store ptr %20, ptr %4, align 8, !tbaa !4
  %21 = load ptr, ptr %3, align 8, !tbaa !4
  %22 = load ptr, ptr %4, align 8, !tbaa !4
  %23 = call zeroext i8 @lean_name_eq(ptr noundef %21, ptr noundef %22)
  store i8 %23, ptr %5, align 1, !tbaa !10
  %24 = load i8, ptr %5, align 1, !tbaa !10
  %25 = zext i8 %24 to i32
  %26 = icmp eq i32 %25, 0
  br i1 %26, label %27, label %66

27:                                               ; preds = %19
  call void @llvm.lifetime.start.p0(i64 8, ptr %6) #8
  call void @llvm.lifetime.start.p0(i64 1, ptr %7) #8
  %28 = load ptr, ptr @l___private_Lean_Meta_Tactic_Grind_SimpUtil_0__Lean_Meta_Grind_isBoolEqTarget___closed__5, align 8, !tbaa !4
  store ptr %28, ptr %6, align 8, !tbaa !4
  %29 = load ptr, ptr %3, align 8, !tbaa !4
  %30 = load ptr, ptr %6, align 8, !tbaa !4
  %31 = call zeroext i8 @lean_name_eq(ptr noundef %29, ptr noundef %30)
  store i8 %31, ptr %7, align 1, !tbaa !10
  %32 = load i8, ptr %7, align 1, !tbaa !10
  %33 = zext i8 %32 to i32
  %34 = icmp eq i32 %33, 0
  br i1 %34, label %35, label %63

35:                                               ; preds = %27
  call void @llvm.lifetime.start.p0(i64 8, ptr %8) #8
  call void @llvm.lifetime.start.p0(i64 1, ptr %9) #8
  %36 = load ptr, ptr @l___private_Lean_Meta_Tactic_Grind_SimpUtil_0__Lean_Meta_Grind_isBoolEqTarget___closed__7, align 8, !tbaa !4
  store ptr %36, ptr %8, align 8, !tbaa !4
  %37 = load ptr, ptr %3, align 8, !tbaa !4
  %38 = load ptr, ptr %8, align 8, !tbaa !4
  %39 = call zeroext i8 @lean_name_eq(ptr noundef %37, ptr noundef %38)
  store i8 %39, ptr %9, align 1, !tbaa !10
  %40 = load i8, ptr %9, align 1, !tbaa !10
  %41 = zext i8 %40 to i32
  %42 = icmp eq i32 %41, 0
  br i1 %42, label %43, label %60

43:                                               ; preds = %35
  call void @llvm.lifetime.start.p0(i64 8, ptr %10) #8
  call void @llvm.lifetime.start.p0(i64 1, ptr %11) #8
  %44 = load ptr, ptr @l___private_Lean_Meta_Tactic_Grind_SimpUtil_0__Lean_Meta_Grind_isBoolEqTarget___closed__10, align 8, !tbaa !4
  store ptr %44, ptr %10, align 8, !tbaa !4
  %45 = load ptr, ptr %3, align 8, !tbaa !4
  %46 = load ptr, ptr %10, align 8, !tbaa !4
  %47 = call zeroext i8 @lean_name_eq(ptr noundef %45, ptr noundef %46)
  store i8 %47, ptr %11, align 1, !tbaa !10
  %48 = load i8, ptr %11, align 1, !tbaa !10
  %49 = zext i8 %48 to i32
  %50 = icmp eq i32 %49, 0
  br i1 %50, label %51, label %57

51:                                               ; preds = %43
  call void @llvm.lifetime.start.p0(i64 8, ptr %12) #8
  call void @llvm.lifetime.start.p0(i64 1, ptr %13) #8
  %52 = load ptr, ptr @l___private_Lean_Meta_Tactic_Grind_SimpUtil_0__Lean_Meta_Grind_isBoolEqTarget___closed__13, align 8, !tbaa !4
  store ptr %52, ptr %12, align 8, !tbaa !4
  %53 = load ptr, ptr %3, align 8, !tbaa !4
  %54 = load ptr, ptr %12, align 8, !tbaa !4
  %55 = call zeroext i8 @lean_name_eq(ptr noundef %53, ptr noundef %54)
  store i8 %55, ptr %13, align 1, !tbaa !10
  %56 = load i8, ptr %13, align 1, !tbaa !10
  store i8 %56, ptr %2, align 1
  store i32 1, ptr %14, align 4
  call void @llvm.lifetime.end.p0(i64 1, ptr %13) #8
  call void @llvm.lifetime.end.p0(i64 8, ptr %12) #8
  br label %59

57:                                               ; preds = %43
  call void @llvm.lifetime.start.p0(i64 1, ptr %15) #8
  store i8 1, ptr %15, align 1, !tbaa !10
  %58 = load i8, ptr %15, align 1, !tbaa !10
  store i8 %58, ptr %2, align 1
  store i32 1, ptr %14, align 4
  call void @llvm.lifetime.end.p0(i64 1, ptr %15) #8
  br label %59

59:                                               ; preds = %57, %51
  call void @llvm.lifetime.end.p0(i64 1, ptr %11) #8
  call void @llvm.lifetime.end.p0(i64 8, ptr %10) #8
  br label %62

60:                                               ; preds = %35
  call void @llvm.lifetime.start.p0(i64 1, ptr %16) #8
  store i8 1, ptr %16, align 1, !tbaa !10
  %61 = load i8, ptr %16, align 1, !tbaa !10
  store i8 %61, ptr %2, align 1
  store i32 1, ptr %14, align 4
  call void @llvm.lifetime.end.p0(i64 1, ptr %16) #8
  br label %62

62:                                               ; preds = %60, %59
  call void @llvm.lifetime.end.p0(i64 1, ptr %9) #8
  call void @llvm.lifetime.end.p0(i64 8, ptr %8) #8
  br label %65

63:                                               ; preds = %27
  call void @llvm.lifetime.start.p0(i64 1, ptr %17) #8
  store i8 1, ptr %17, align 1, !tbaa !10
  %64 = load i8, ptr %17, align 1, !tbaa !10
  store i8 %64, ptr %2, align 1
  store i32 1, ptr %14, align 4
  call void @llvm.lifetime.end.p0(i64 1, ptr %17) #8
  br label %65

65:                                               ; preds = %63, %62
  call void @llvm.lifetime.end.p0(i64 1, ptr %7) #8
  call void @llvm.lifetime.end.p0(i64 8, ptr %6) #8
  br label %68

66:                                               ; preds = %19
  call void @llvm.lifetime.start.p0(i64 1, ptr %18) #8
  store i8 1, ptr %18, align 1, !tbaa !10
  %67 = load i8, ptr %18, align 1, !tbaa !10
  store i8 %67, ptr %2, align 1
  store i32 1, ptr %14, align 4
  call void @llvm.lifetime.end.p0(i64 1, ptr %18) #8
  br label %68

68:                                               ; preds = %66, %65
  call void @llvm.lifetime.end.p0(i64 1, ptr %5) #8
  call void @llvm.lifetime.end.p0(i64 8, ptr %4) #8
  %69 = load i8, ptr %2, align 1
  ret i8 %69
}