; Function Attrs: nounwind uwtable
define zeroext i8 @l___private_Lean_Meta_Tactic_Grind_SimpUtil_0__Lean_Meta_Grind_isBoolEqTarget(ptr noundef %0) local_unnamed_addr #0 {
  %2 = load ptr, ptr @l___private_Lean_Meta_Tactic_Grind_SimpUtil_0__Lean_Meta_Grind_isBoolEqTarget___closed__3, align 8, !tbaa !4
  %3 = tail call zeroext i8 @lean_name_eq(ptr noundef %0, ptr noundef %2) #4
  %4 = icmp eq i8 %3, 0
  br i1 %4, label %5, label %20

5:                                                ; preds = %1
  %6 = load ptr, ptr @l___private_Lean_Meta_Tactic_Grind_SimpUtil_0__Lean_Meta_Grind_isBoolEqTarget___closed__5, align 8, !tbaa !4
  %7 = tail call zeroext i8 @lean_name_eq(ptr noundef %0, ptr noundef %6) #4
  %8 = icmp eq i8 %7, 0
  br i1 %8, label %9, label %20

9:                                                ; preds = %5
  %10 = load ptr, ptr @l___private_Lean_Meta_Tactic_Grind_SimpUtil_0__Lean_Meta_Grind_isBoolEqTarget___closed__7, align 8, !tbaa !4
  %11 = tail call zeroext i8 @lean_name_eq(ptr noundef %0, ptr noundef %10) #4
  %12 = icmp eq i8 %11, 0
  br i1 %12, label %13, label %20

13:                                               ; preds = %9
  %14 = load ptr, ptr @l___private_Lean_Meta_Tactic_Grind_SimpUtil_0__Lean_Meta_Grind_isBoolEqTarget___closed__10, align 8, !tbaa !4
  %15 = tail call zeroext i8 @lean_name_eq(ptr noundef %0, ptr noundef %14) #4
  %16 = icmp eq i8 %15, 0
  br i1 %16, label %17, label %20

17:                                               ; preds = %13
  %18 = load ptr, ptr @l___private_Lean_Meta_Tactic_Grind_SimpUtil_0__Lean_Meta_Grind_isBoolEqTarget___closed__13, align 8, !tbaa !4
  %19 = tail call zeroext i8 @lean_name_eq(ptr noundef %0, ptr noundef %18) #4
  br label %20

20:                                               ; preds = %1, %9, %17, %13, %5
  %.3 = phi i8 [ %19, %17 ], [ 1, %13 ], [ 1, %9 ], [ 1, %5 ], [ 1, %1 ]
  ret i8 %.3
}